ccopy_reg
_reconstructor
p0
(csklearn.preprocessing._function_transformer
FunctionTransformer
p1
c__builtin__
object
p2
Ntp3
Rp4
(dp5
S'inv_kw_args'
p6
NsS'_validate'
p7
I01
sS'inverse_func'
p8
NsS'pass_y'
p9
S'deprecated'
p10
sS'kw_args'
p11
NsS'_sklearn_version'
p12
S'0.20.1'
p13
sS'func'
p14
cnumpy.core
_ufunc_reconstruct
p15
(S'scipy.stats._discrete_distns'
p16
S'log1p'
p17
tp18
Rp19
sS'accept_sparse'
p20
I00
sS'check_inverse'
p21
I01
sS'validate'
p22
I01
sb.